target datalayout = "e-m:e-p270:32:32-p271:32:32-p272:64:64-i64:64-i128:128-f80:128-n8:16:32:64-S128"
target triple = "x86_64-pc-linux-gnu"

@.str.55 = private unnamed_addr constant [5 x i8] c"call\00", align 1

; Function Attrs: inlinehint nounwind uwtable
define internal i64 @_PyVectorcall_NARGS(i64 noundef %0) #3 {
  %2 = alloca i64, align 8
  store i64 %0, ptr %2, align 8, !tbaa !18
  %3 = load i64, ptr %2, align 8, !tbaa !18
  %4 = and i64 %3, 9223372036854775807
  ret i64 %4
}

; Function Attrs: nounwind uwtable
define internal ptr @_operator_call(ptr noundef %0, ptr noundef %1, i64 noundef %2, ptr noundef %3) #0 {
  %5 = alloca ptr, align 8
  %6 = alloca ptr, align 8
  %7 = alloca ptr, align 8
  %8 = alloca i64, align 8
  %9 = alloca ptr, align 8
  store ptr %0, ptr %6, align 8, !tbaa !4
  store ptr %1, ptr %7, align 8, !tbaa !16
  store i64 %2, ptr %8, align 8, !tbaa !18
  store ptr %3, ptr %9, align 8, !tbaa !4
  %10 = load i64, ptr %8, align 8, !tbaa !18
  %11 = call i32 @_PyArg_CheckPositional(ptr noundef @.str.55, i64 noundef %10, i64 noundef 1, i64 noundef 9223372036854775807)
  %12 = icmp ne i32 %11, 0
  br i1 %12, label %14, label %13

13:                                               ; preds = %4
  store ptr null, ptr %5, align 8
  br label %26

14:                                               ; preds = %4
  %15 = load ptr, ptr %7, align 8, !tbaa !16
  %16 = getelementptr ptr, ptr %15, i64 0
  %17 = load ptr, ptr %16, align 8, !tbaa !4
  %18 = load ptr, ptr %7, align 8, !tbaa !16
  %19 = getelementptr ptr, ptr %18, i64 1
  %20 = load i64, ptr %8, align 8, !tbaa !18
  %21 = call i64 @_PyVectorcall_NARGS(i64 noundef %20)
  %22 = sub i64 %21, 1
  %23 = or i64 %22, -9223372036854775808
  %24 = load ptr, ptr %9, align 8, !tbaa !4
  %25 = call ptr @PyObject_Vectorcall(ptr noundef %17, ptr noundef %19, i64 noundef %23, ptr noundef %24)
  store ptr %25, ptr %5, align 8
  br label %26

26:                                               ; preds = %14, %13
  %27 = load ptr, ptr %5, align 8
  ret ptr %27
}