; Function Attrs: nounwind uwtable
define internal ptr @_operator_call(ptr readnone captures(none) %0, ptr noundef %1, i64 noundef %2, ptr noundef %3) #0 {
  %5 = tail call i32 @_PyArg_CheckPositional(ptr noundef nonnull @.str.55, i64 noundef %2, i64 noundef 1, i64 noundef 9223372036854775807) #7
  %.not = icmp eq i32 %5, 0
  br i1 %.not, label %12, label %6

6:                                                ; preds = %4
  %7 = load ptr, ptr %1, align 8, !tbaa !17
  %8 = getelementptr i8, ptr %1, i64 8
  %9 = add i64 %2, 9223372036854775807
  %10 = or i64 %9, -9223372036854775808
  %11 = tail call ptr @PyObject_Vectorcall(ptr noundef %7, ptr noundef %8, i64 noundef %10, ptr noundef %3) #7
  br label %12

12:                                               ; preds = %4, %6
  %.0 = phi ptr [ %11, %6 ], [ null, %4 ]
  ret ptr %.0
}